; Function Attrs: mustprogress nofree norecurse nosync nounwind willreturn memory(argmem: write) uwtable
define void @_ZN3gmx23TextLineWrapperSettingsC2Ev(ptr nocapture noundef nonnull writeonly align 4 dereferenceable(14) %0) unnamed_addr #16 align 2 {
  store i32 0, ptr %0, align 4
  %2 = getelementptr inbounds i8, ptr %0, i64 4
  store i32 0, ptr %2, align 4
  %3 = getelementptr inbounds i8, ptr %0, i64 8
  store i32 -1, ptr %3, align 4
  %4 = getelementptr inbounds i8, ptr %0, i64 12
  store i8 0, ptr %4, align 4
  %5 = getelementptr inbounds i8, ptr %0, i64 13
  store i8 0, ptr %5, align 1
  ret void
}